; Function Attrs: nofree nounwind uwtable
define dso_local i32 @test_vprintf_stdout(ptr noundef readonly captures(none) %0, ptr noundef %1) local_unnamed_addr #5 {
  %3 = load ptr, ptr @stdout, align 8, !tbaa !24
  %4 = load i32, ptr @tap_level, align 4, !tbaa !23
  %5 = tail call i32 (ptr, ptr, ...) @fprintf(ptr noundef %3, ptr noundef nonnull @.str.20, i32 noundef %4, ptr noundef nonnull @.str.21) #9
  %6 = load ptr, ptr @stdout, align 8, !tbaa !24
  %7 = tail call i32 @vfprintf(ptr noundef %6, ptr noundef %0, ptr noundef %1) #9
  %8 = add nsw i32 %7, %5
  ret i32 %8
}